; Function Attrs: mustprogress uwtable
define internal fastcc noundef nonnull align 8 dereferenceable(112) ptr @_ZN16cmArgumentParserIZN12_GLOBAL__N_120HandleReadElfCommandERKSt6vectorINSt7__cxx1112basic_stringIcSt11char_traitsIcESaIcEEESaIS7_EER17cmExecutionStatusE9ArgumentsE4BindIMSE_S7_SE_S7_vvEERSF_N2cm18static_string_viewET_(ptr noundef nonnull returned align 8 dereferenceable(112) %0, i64 %1, ptr %2, i64 range(i64 0, 65) %3) unnamed_addr #5 align 2 personality ptr @__gxx_personality_v0 {
  %5 = alloca %"class.std::function.244", align 8
  %6 = getelementptr inbounds nuw i8, ptr %5, i64 16
  %7 = getelementptr inbounds nuw i8, ptr %5, i64 24
  %8 = getelementptr inbounds nuw i8, ptr %5, i64 8
  store i64 0, ptr %8, align 8
  store i64 %3, ptr %5, align 8, !tbaa !14
  store ptr @_ZNSt17_Function_handlerIFvRN14ArgumentParser8InstanceEEZN16cmArgumentParserIZN12_GLOBAL__N_120HandleReadElfCommandERKSt6vectorINSt7__cxx1112basic_stringIcSt11char_traitsIcESaIcEEESaISC_EER17cmExecutionStatusE9ArgumentsE4BindIMSJ_SC_SJ_SC_vvEERSK_N2cm18static_string_viewET_EUlS2_E_E9_M_invokeERKSt9_Any_dataS2_, ptr %7, align 8, !tbaa !397
  store ptr @_ZNSt17_Function_handlerIFvRN14ArgumentParser8InstanceEEZN16cmArgumentParserIZN12_GLOBAL__N_120HandleReadElfCommandERKSt6vectorINSt7__cxx1112basic_stringIcSt11char_traitsIcESaIcEEESaISC_EER17cmExecutionStatusE9ArgumentsE4BindIMSJ_SC_SJ_SC_vvEERSK_N2cm18static_string_viewET_EUlS2_E_E10_M_managerERSt9_Any_dataRKST_St18_Manager_operation, ptr %6, align 8, !tbaa !107
  invoke void @_ZN14ArgumentParser4Base4BindESt17basic_string_viewIcSt11char_traitsIcEESt8functionIFvRNS_8InstanceEEE(ptr noundef nonnull align 8 dereferenceable(112) %0, i64 %1, ptr %2, ptr noundef nonnull %5)
          to label %9 unwind label %16

9:                                                ; preds = %4
  %10 = load ptr, ptr %6, align 8, !tbaa !107
  %.not.i = icmp eq ptr %10, null
  br i1 %.not.i, label %_ZNSt14_Function_baseD2Ev.exit, label %11

11:                                               ; preds = %9
  %12 = invoke noundef zeroext i1 %10(ptr noundef nonnull align 8 dereferenceable(32) %5, ptr noundef nonnull align 8 dereferenceable(32) %5, i32 noundef 3)
          to label %_ZNSt14_Function_baseD2Ev.exit unwind label %13

13:                                               ; preds = %11
  %14 = landingpad { ptr, i32 }
          catch ptr null
  %15 = extractvalue { ptr, i32 } %14, 0
  call void @__clang_call_terminate(ptr %15) #31
  unreachable

_ZNSt14_Function_baseD2Ev.exit:                   ; preds = %9, %11
  ret ptr %0

16:                                               ; preds = %4
  %17 = landingpad { ptr, i32 }
          cleanup
  %18 = load ptr, ptr %6, align 8, !tbaa !107
  %.not.i5 = icmp eq ptr %18, null
  br i1 %.not.i5, label %_ZNSt14_Function_baseD2Ev.exit6, label %19

19:                                               ; preds = %16
  %20 = invoke noundef zeroext i1 %18(ptr noundef nonnull align 8 dereferenceable(32) %5, ptr noundef nonnull align 8 dereferenceable(32) %5, i32 noundef 3)
          to label %_ZNSt14_Function_baseD2Ev.exit6 unwind label %21

21:                                               ; preds = %19
  %22 = landingpad { ptr, i32 }
          catch ptr null
  %23 = extractvalue { ptr, i32 } %22, 0
  call void @__clang_call_terminate(ptr %23) #31
  unreachable

_ZNSt14_Function_baseD2Ev.exit6:                  ; preds = %16, %19
  resume { ptr, i32 } %17
}